Certificate:
    Data:
        Version: 3 (0x2)
        Serial Number: 4096 (0x1000)
        Signature Algorithm: sha256WithRSAEncryption
        Issuer: O=btdt, CN=btdt CA
        Validity
            Not Before: Aug  2 18:17:05 2025 GMT
            Not After : Jul 31 18:17:05 2035 GMT
        Subject: CN=localhost, O=btdt
        Subject Public Key Info:
            Public Key Algorithm: rsaEncryption
                Public-Key: (2048 bit)
                Modulus:
                    00:a4:c1:bf:ff:6b:7e:c5:91:52:70:e0:e5:f1:ae:
                    c5:55:04:df:c4:6a:c3:23:ed:53:40:71:8d:4d:3a:
                    e6:97:9b:77:22:92:5f:7c:29:3b:f2:a6:51:93:2d:
                    09:d7:0b:d0:ec:bd:3a:bc:d8:e7:5d:0d:8f:fa:31:
                    08:4d:ba:fa:7c:5c:bc:c1:7f:f8:d4:fe:19:b9:dd:
                    35:44:d6:0b:6a:45:d2:8f:cf:32:eb:77:4b:16:dc:
                    4e:9c:18:e1:ac:b8:d6:f3:91:47:79:0c:2a:be:87:
                    ca:ac:47:c9:6c:c6:c4:2f:5c:9c:b1:7b:23:f3:09:
                    1b:62:ac:e6:8d:a8:20:99:2c:45:4a:eb:ab:bc:4e:
                    0c:35:ce:89:58:5a:fa:13:e8:58:4e:2f:7e:a5:01:
                    6c:2b:5f:22:a7:30:b1:b7:26:8d:0d:15:aa:f3:b9:
                    df:c6:22:53:65:f2:97:56:1c:93:8c:5e:37:77:97:
                    d0:fe:ea:9b:8b:e4:41:27:f7:e6:76:c3:0c:77:d6:
                    a0:45:b1:f0:9a:23:f4:86:b1:39:a1:24:81:58:b5:
                    82:a0:c3:ad:f0:60:b7:bf:04:54:60:17:b9:3e:c4:
                    13:4e:b4:1f:4e:6b:2f:b8:27:74:2d:e7:11:b7:15:
                    43:11:0d:42:71:8d:b9:80:ec:9b:2f:cc:1d:61:aa:
                    57:75
                Exponent: 65537 (0x10001)
        X509v3 extensions:
            X509v3 Basic Constraints: 
                CA:FALSE
            X509v3 Subject Key Identifier: 
                B3:80:5D:45:B7:91:4D:64:C7:B2:C3:7E:10:C0:95:E1:9D:57:E0:19
            X509v3 Authority Key Identifier: 
                40:0A:F4:A7:F7:7A:D9:84:E4:3E:C7:85:61:6C:72:67:19:F5:C8:67
            X509v3 Key Usage: critical
                Digital Signature, Key Encipherment
            X509v3 Extended Key Usage: 
                TLS Web Server Authentication, TLS Web Client Authentication
            X509v3 Subject Alternative Name: 
                DNS:localhost, IP Address:127.0.0.1, IP Address:0:0:0:0:0:0:0:1
    Signature Algorithm: sha256WithRSAEncryption
    Signature Value:
        1e:82:69:ec:86:fa:dd:fc:73:e7:8e:36:8f:24:9f:dc:22:1b:
        98:16:72:52:9b:53:0f:e7:7b:4e:e8:a3:dc:7f:00:e9:9d:70:
        b3:20:0c:4d:b5:40:3f:9d:8d:e8:99:c9:7e:d4:ac:a3:31:38:
        52:01:04:cd:80:80:8e:12:21:22:13:6a:e3:37:c5:44:06:a5:
        da:8c:17:36:f7:a1:0f:d6:22:d6:a8:1f:39:ae:4f:fe:ca:e3:
        a8:5d:47:c7:8f:a5:fa:70:0c:6d:f5:68:fe:ad:60:b3:8f:35:
        62:0b:82:f0:ea:64:f0:af:c3:62:b9:1b:c8:69:73:99:a2:d5:
        44:82:f2:07:0d:4e:2c:77:c2:3b:60:9f:c9:4d:a1:88:6e:13:
        5f:ba:c8:23:af:db:59:cd:f7:c5:fe:e0:61:25:f8:f1:18:0d:
        55:5f:61:84:46:17:79:4b:4a:79:f6:53:bf:e5:e3:a3:04:01:
        1e:fa:f1:57:15:94:77:75:09:2e:d9:f7:42:71:5c:35:df:fa:
        20:0e:1f:1f:d5:c4:6d:bc:a0:e6:56:c7:c6:b0:cc:1b:9d:44:
        c6:74:f2:95:f3:07:f9:3e:63:2b:a1:93:cb:4c:6c:89:15:4b:
        e3:1c:30:dd:fc:41:9c:5a:ae:3a:cc:b8:1f:94:30:d5:2f:d1:
        7d:4a:b0:1b
-----BEGIN CERTIFICATE-----
MIIDbDCCAlSgAwIBAgICEAAwDQYJKoZIhvcNAQELBQAwITENMAsGA1UECgwEYnRk
dDEQMA4GA1UEAwwHYnRkdCBDQTAeFw0yNTA4MDIxODE3MDVaFw0zNTA3MzExODE3
MDVaMCMxEjAQBgNVBAMMCWxvY2FsaG9zdDENMAsGA1UECgwEYnRkdDCCASIwDQYJ
KoZIhvcNAQEBBQADggEPADCCAQoCggEBAKTBv/9rfsWRUnDg5fGuxVUE38RqwyPt
U0BxjU065pebdyKSX3wpO/KmUZMtCdcL0Oy9OrzY510Nj/oxCE26+nxcvMF/+NT+
GbndNUTWC2pF0o/PMut3SxbcTpwY4ay41vORR3kMKr6HyqxHyWzGxC9cnLF7I/MJ
G2Ks5o2oIJksRUrrq7xODDXOiVha+hPoWE4vfqUBbCtfIqcwsbcmjQ0VqvO538Yi
U2Xyl1Yck4xeN3eX0P7qm4vkQSf35nbDDHfWoEWx8Joj9IaxOaEkgVi1gqDDrfBg
t78EVGAXuT7EE060H05rL7gndC3nEbcVQxENQnGNuYDsmy/MHWGqV3UCAwEAAaOB
qzCBqDAJBgNVHRMEAjAAMB0GA1UdDgQWBBSzgF1Ft5FNZMeyw34QwJXhnVfgGTAf
BgNVHSMEGDAWgBRACvSn93rZhOQ+x4VhbHJnGfXIZzAOBgNVHQ8BAf8EBAMCBaAw
HQYDVR0lBBYwFAYIKwYBBQUHAwEGCCsGAQUFBwMCMCwGA1UdEQQlMCOCCWxvY2Fs
aG9zdIcEfwAAAYcQAAAAAAAAAAAAAAAAAAAAATANBgkqhkiG9w0BAQsFAAOCAQEA
HoJp7Ib63fxz5442jySf3CIbmBZyUptTD+d7Tuij3H8A6Z1wsyAMTbVAP52N6JnJ
ftSsozE4UgEEzYCAjhIhIhNq4zfFRAal2owXNvehD9Yi1qgfOa5P/srjqF1Hx4+l
+nAMbfVo/q1gs481YguC8Opk8K/DYrkbyGlzmaLVRILyBw1OLHfCO2CfyU2hiG4T
X7rII6/bWc33xf7gYSX48RgNVV9hhEYXeUtKefZTv+XjowQBHvrxVxWUd3UJLtn3
QnFcNd/6IA4fH9XEbbyg5lbHxrDMG51ExnTylfMH+T5jK6GTy0xsiRVL4xww3fxB
nFquOsy4H5Qw1S/RfUqwGw==
-----END CERTIFICATE-----
